target datalayout = "e-m:e-p270:32:32-p271:32:32-p272:64:64-i64:64-i128:128-f80:128-n8:16:32:64-S128"
target triple = "x86_64-pc-linux-gnu"

%struct._e_guid_t = type { i32, i16, i16, [8 x i8] }

@hf_remact_requested_protseqs = internal global i32 0, align 4
@hf_remact_protseqs = internal global i32 0, align 4
@hf_remact_interfaces = internal global i32 0, align 4
@hf_remact_mode = internal global i32 0, align 4
@hf_remact_client_impl_level = internal global i32 0, align 4
@hf_remact_object_name = internal global i32 0, align 4
@hf_remact_object_storage = internal global i32 0, align 4
@hf_dcom_clsid = external global i32, align 4
@hf_dcom_iid = external global i32, align 4

; Function Attrs: nounwind uwtable
define internal i32 @dissect_remact_remote_activation_rqst(ptr noundef %0, i32 noundef %1, ptr noundef %2, ptr noundef %3, ptr noundef %4, ptr noundef %5) #0 {
  %7 = alloca ptr, align 8
  %8 = alloca i32, align 4
  %9 = alloca ptr, align 8
  %10 = alloca ptr, align 8
  %11 = alloca ptr, align 8
  %12 = alloca ptr, align 8
  %13 = alloca i32, align 4
  %14 = alloca i32, align 4
  %15 = alloca i32, align 4
  %16 = alloca i32, align 4
  %17 = alloca i32, align 4
  %18 = alloca i32, align 4
  %19 = alloca i16, align 2
  %20 = alloca %struct._e_guid_t, align 4
  %21 = alloca %struct._e_guid_t, align 4
  %22 = alloca [1000 x i8], align 16
  %23 = alloca i32, align 4
  store ptr %0, ptr %7, align 8
  store i32 %1, ptr %8, align 4
  store ptr %2, ptr %9, align 8
  store ptr %3, ptr %10, align 8
  store ptr %4, ptr %11, align 8
  store ptr %5, ptr %12, align 8
  call void @llvm.memset.p0.i64(ptr align 16 %22, i8 0, i64 1000, i1 false)
  store i32 1000, ptr %23, align 4
  %24 = load ptr, ptr %7, align 8
  %25 = load i32, ptr %8, align 4
  %26 = load ptr, ptr %9, align 8
  %27 = load ptr, ptr %10, align 8
  %28 = load ptr, ptr %11, align 8
  %29 = load ptr, ptr %12, align 8
  %30 = call i32 @dissect_dcom_this(ptr noundef %24, i32 noundef %25, ptr noundef %26, ptr noundef %27, ptr noundef %28, ptr noundef %29)
  store i32 %30, ptr %8, align 4
  %31 = load ptr, ptr %7, align 8
  %32 = load i32, ptr %8, align 4
  %33 = load ptr, ptr %9, align 8
  %34 = load ptr, ptr %10, align 8
  %35 = load ptr, ptr %11, align 8
  %36 = load ptr, ptr %12, align 8
  %37 = load i32, ptr @hf_dcom_clsid, align 4
  %38 = call i32 @dissect_dcom_append_UUID(ptr noundef %31, i32 noundef %32, ptr noundef %33, ptr noundef %34, ptr noundef %35, ptr noundef %36, i32 noundef %37, i32 noundef -1, ptr noundef %20)
  store i32 %38, ptr %8, align 4
  %39 = load ptr, ptr %7, align 8
  %40 = load i32, ptr %8, align 4
  %41 = load ptr, ptr %9, align 8
  %42 = load ptr, ptr %10, align 8
  %43 = load ptr, ptr %11, align 8
  %44 = load ptr, ptr %12, align 8
  %45 = call i32 @dissect_dcom_dcerpc_pointer(ptr noundef %39, i32 noundef %40, ptr noundef %41, ptr noundef %42, ptr noundef %43, ptr noundef %44, ptr noundef %16)
  store i32 %45, ptr %8, align 4
  %46 = load i32, ptr %16, align 4
  %47 = icmp ne i32 %46, 0
  br i1 %47, label %48, label %59

48:                                               ; preds = %6
  %49 = load ptr, ptr %7, align 8
  %50 = load i32, ptr %8, align 4
  %51 = load ptr, ptr %9, align 8
  %52 = load ptr, ptr %10, align 8
  %53 = load ptr, ptr %11, align 8
  %54 = load ptr, ptr %12, align 8
  %55 = load i32, ptr @hf_remact_object_name, align 4
  %56 = getelementptr inbounds [1000 x i8], ptr %22, i64 0, i64 0
  %57 = load i32, ptr %23, align 4
  %58 = call i32 @dissect_dcom_BSTR(ptr noundef %49, i32 noundef %50, ptr noundef %51, ptr noundef %52, ptr noundef %53, ptr noundef %54, i32 noundef %55, ptr noundef %56, i32 noundef %57)
  store i32 %58, ptr %8, align 4
  br label %59

59:                                               ; preds = %48, %6
  %60 = load ptr, ptr %7, align 8
  %61 = load i32, ptr %8, align 4
  %62 = load ptr, ptr %9, align 8
  %63 = load ptr, ptr %10, align 8
  %64 = load ptr, ptr %11, align 8
  %65 = load ptr, ptr %12, align 8
  %66 = load i32, ptr @hf_remact_object_storage, align 4
  %67 = call i32 @dissect_dcom_PMInterfacePointer(ptr noundef %60, i32 noundef %61, ptr noundef %62, ptr noundef %63, ptr noundef %64, ptr noundef %65, i32 noundef %66, ptr noundef null)
  store i32 %67, ptr %8, align 4
  %68 = load ptr, ptr %7, align 8
  %69 = load i32, ptr %8, align 4
  %70 = load ptr, ptr %9, align 8
  %71 = load ptr, ptr %10, align 8
  %72 = load ptr, ptr %11, align 8
  %73 = load ptr, ptr %12, align 8
  %74 = load i32, ptr @hf_remact_client_impl_level, align 4
  %75 = call i32 @dissect_ndr_uint32(ptr noundef %68, i32 noundef %69, ptr noundef %70, ptr noundef %71, ptr noundef %72, ptr noundef %73, i32 noundef %74, ptr noundef %13)
  store i32 %75, ptr %8, align 4
  %76 = load ptr, ptr %7, align 8
  %77 = load i32, ptr %8, align 4
  %78 = load ptr, ptr %9, align 8
  %79 = load ptr, ptr %10, align 8
  %80 = load ptr, ptr %11, align 8
  %81 = load ptr, ptr %12, align 8
  %82 = load i32, ptr @hf_remact_mode, align 4
  %83 = call i32 @dissect_ndr_uint32(ptr noundef %76, i32 noundef %77, ptr noundef %78, ptr noundef %79, ptr noundef %80, ptr noundef %81, i32 noundef %82, ptr noundef %14)
  store i32 %83, ptr %8, align 4
  %84 = load ptr, ptr %7, align 8
  %85 = load i32, ptr %8, align 4
  %86 = load ptr, ptr %9, align 8
  %87 = load ptr, ptr %10, align 8
  %88 = load ptr, ptr %11, align 8
  %89 = load ptr, ptr %12, align 8
  %90 = load i32, ptr @hf_remact_interfaces, align 4
  %91 = call i32 @dissect_ndr_uint32(ptr noundef %84, i32 noundef %85, ptr noundef %86, ptr noundef %87, ptr noundef %88, ptr noundef %89, i32 noundef %90, ptr noundef %15)
  store i32 %91, ptr %8, align 4
  %92 = load ptr, ptr %7, align 8
  %93 = load i32, ptr %8, align 4
  %94 = load ptr, ptr %9, align 8
  %95 = load ptr, ptr %10, align 8
  %96 = load ptr, ptr %11, align 8
  %97 = load ptr, ptr %12, align 8
  %98 = call i32 @dissect_dcom_dcerpc_pointer(ptr noundef %92, i32 noundef %93, ptr noundef %94, ptr noundef %95, ptr noundef %96, ptr noundef %97, ptr noundef %16)
  store i32 %98, ptr %8, align 4
  %99 = load i32, ptr %16, align 4
  %100 = icmp ne i32 %99, 0
  br i1 %100, label %101, label %126

101:                                              ; preds = %59
  %102 = load ptr, ptr %7, align 8
  %103 = load i32, ptr %8, align 4
  %104 = load ptr, ptr %9, align 8
  %105 = load ptr, ptr %10, align 8
  %106 = load ptr, ptr %11, align 8
  %107 = load ptr, ptr %12, align 8
  %108 = call i32 @dissect_dcom_dcerpc_array_size(ptr noundef %102, i32 noundef %103, ptr noundef %104, ptr noundef %105, ptr noundef %106, ptr noundef %107, ptr noundef %17)
  store i32 %108, ptr %8, align 4
  store i32 1, ptr %18, align 4
  br label %109

109:                                              ; preds = %113, %101
  %110 = load i32, ptr %15, align 4
  %111 = add i32 %110, -1
  store i32 %111, ptr %15, align 4
  %112 = icmp ne i32 %110, 0
  br i1 %112, label %113, label %125

113:                                              ; preds = %109
  %114 = load ptr, ptr %7, align 8
  %115 = load i32, ptr %8, align 4
  %116 = load ptr, ptr %9, align 8
  %117 = load ptr, ptr %10, align 8
  %118 = load ptr, ptr %11, align 8
  %119 = load ptr, ptr %12, align 8
  %120 = load i32, ptr @hf_dcom_iid, align 4
  %121 = load i32, ptr %18, align 4
  %122 = call i32 @dissect_dcom_append_UUID(ptr noundef %114, i32 noundef %115, ptr noundef %116, ptr noundef %117, ptr noundef %118, ptr noundef %119, i32 noundef %120, i32 noundef %121, ptr noundef %21)
  store i32 %122, ptr %8, align 4
  %123 = load i32, ptr %18, align 4
  %124 = add i32 %123, 1
  store i32 %124, ptr %18, align 4
  br label %109, !llvm.loop !4

125:                                              ; preds = %109
  br label %126

126:                                              ; preds = %125, %59
  %127 = load ptr, ptr %7, align 8
  %128 = load i32, ptr %8, align 4
  %129 = load ptr, ptr %9, align 8
  %130 = load ptr, ptr %10, align 8
  %131 = load ptr, ptr %11, align 8
  %132 = load ptr, ptr %12, align 8
  %133 = load i32, ptr @hf_remact_requested_protseqs, align 4
  %134 = call i32 @dissect_ndr_uint16(ptr noundef %127, i32 noundef %128, ptr noundef %129, ptr noundef %130, ptr noundef %131, ptr noundef %132, i32 noundef %133, ptr noundef %19)
  store i32 %134, ptr %8, align 4
  %135 = load ptr, ptr %7, align 8
  %136 = load i32, ptr %8, align 4
  %137 = load ptr, ptr %9, align 8
  %138 = load ptr, ptr %10, align 8
  %139 = load ptr, ptr %11, align 8
  %140 = load ptr, ptr %12, align 8
  %141 = call i32 @dissect_dcom_dcerpc_array_size(ptr noundef %135, i32 noundef %136, ptr noundef %137, ptr noundef %138, ptr noundef %139, ptr noundef %140, ptr noundef %17)
  store i32 %141, ptr %8, align 4
  store i32 1, ptr %18, align 4
  br label %142

142:                                              ; preds = %146, %126
  %143 = load i32, ptr %17, align 4
  %144 = add i32 %143, -1
  store i32 %144, ptr %17, align 4
  %145 = icmp ne i32 %143, 0
  br i1 %145, label %146, label %157

146:                                              ; preds = %142
  %147 = load ptr, ptr %7, align 8
  %148 = load i32, ptr %8, align 4
  %149 = load ptr, ptr %9, align 8
  %150 = load ptr, ptr %10, align 8
  %151 = load ptr, ptr %11, align 8
  %152 = load ptr, ptr %12, align 8
  %153 = load i32, ptr @hf_remact_protseqs, align 4
  %154 = call i32 @dissect_ndr_uint16(ptr noundef %147, i32 noundef %148, ptr noundef %149, ptr noundef %150, ptr noundef %151, ptr noundef %152, i32 noundef %153, ptr noundef %19)
  store i32 %154, ptr %8, align 4
  %155 = load i32, ptr %18, align 4
  %156 = add i32 %155, 1
  store i32 %156, ptr %18, align 4
  br label %142, !llvm.loop !6

157:                                              ; preds = %142
  %158 = load i32, ptr %8, align 4
  ret i32 %158
}