; Function Attrs: nounwind uwtable
define internal i32 @dissect_remact_remote_activation_rqst(ptr noundef %0, i32 noundef %1, ptr noundef %2, ptr noundef %3, ptr noundef %4, ptr noundef %5) #0 {
  %7 = alloca i32, align 4
  %8 = alloca i32, align 4
  %9 = alloca i32, align 4
  %10 = alloca i32, align 4
  %11 = alloca i32, align 4
  %12 = alloca i16, align 2
  %13 = alloca %struct._e_guid_t, align 4
  %14 = alloca %struct._e_guid_t, align 4
  %15 = alloca [1000 x i8], align 16
  call void @llvm.memset.p0.i64(ptr noundef nonnull align 16 dereferenceable(1000) %15, i8 0, i64 1000, i1 false)
  %16 = tail call i32 @dissect_dcom_this(ptr noundef %0, i32 noundef %1, ptr noundef %2, ptr noundef %3, ptr noundef %4, ptr noundef %5) #3
  %17 = load i32, ptr @hf_dcom_clsid, align 4
  %18 = call i32 @dissect_dcom_append_UUID(ptr noundef %0, i32 noundef %16, ptr noundef %2, ptr noundef %3, ptr noundef %4, ptr noundef %5, i32 noundef %17, i32 noundef -1, ptr noundef nonnull %13) #3
  %19 = call i32 @dissect_dcom_dcerpc_pointer(ptr noundef %0, i32 noundef %18, ptr noundef %2, ptr noundef %3, ptr noundef %4, ptr noundef %5, ptr noundef nonnull %10) #3
  %20 = load i32, ptr %10, align 4
  %.not = icmp eq i32 %20, 0
  br i1 %.not, label %24, label %21

21:                                               ; preds = %6
  %22 = load i32, ptr @hf_remact_object_name, align 4
  %23 = call i32 @dissect_dcom_BSTR(ptr noundef %0, i32 noundef %19, ptr noundef %2, ptr noundef %3, ptr noundef %4, ptr noundef %5, i32 noundef %22, ptr noundef nonnull %15, i32 noundef 1000) #3
  br label %24

24:                                               ; preds = %21, %6
  %.0 = phi i32 [ %23, %21 ], [ %19, %6 ]
  %25 = load i32, ptr @hf_remact_object_storage, align 4
  %26 = call i32 @dissect_dcom_PMInterfacePointer(ptr noundef %0, i32 noundef %.0, ptr noundef %2, ptr noundef %3, ptr noundef %4, ptr noundef %5, i32 noundef %25, ptr noundef null) #3
  %27 = load i32, ptr @hf_remact_client_impl_level, align 4
  %28 = call i32 @dissect_ndr_uint32(ptr noundef %0, i32 noundef %26, ptr noundef %2, ptr noundef %3, ptr noundef %4, ptr noundef %5, i32 noundef %27, ptr noundef nonnull %7) #3
  %29 = load i32, ptr @hf_remact_mode, align 4
  %30 = call i32 @dissect_ndr_uint32(ptr noundef %0, i32 noundef %28, ptr noundef %2, ptr noundef %3, ptr noundef %4, ptr noundef %5, i32 noundef %29, ptr noundef nonnull %8) #3
  %31 = load i32, ptr @hf_remact_interfaces, align 4
  %32 = call i32 @dissect_ndr_uint32(ptr noundef %0, i32 noundef %30, ptr noundef %2, ptr noundef %3, ptr noundef %4, ptr noundef %5, i32 noundef %31, ptr noundef nonnull %9) #3
  %33 = call i32 @dissect_dcom_dcerpc_pointer(ptr noundef %0, i32 noundef %32, ptr noundef %2, ptr noundef %3, ptr noundef %4, ptr noundef %5, ptr noundef nonnull %10) #3
  %34 = load i32, ptr %10, align 4
  %.not90 = icmp eq i32 %34, 0
  br i1 %.not90, label %.loopexit, label %35

35:                                               ; preds = %24
  %36 = call i32 @dissect_dcom_dcerpc_array_size(ptr noundef %0, i32 noundef %33, ptr noundef %2, ptr noundef %3, ptr noundef %4, ptr noundef %5, ptr noundef nonnull %11) #3
  %37 = load i32, ptr %9, align 4
  %38 = add i32 %37, -1
  store i32 %38, ptr %9, align 4
  %.not9193 = icmp eq i32 %37, 0
  br i1 %.not9193, label %.loopexit, label %.lr.ph

.lr.ph:                                           ; preds = %35, %.lr.ph
  %.295 = phi i32 [ %40, %.lr.ph ], [ %36, %35 ]
  %.08894 = phi i32 [ %41, %.lr.ph ], [ 1, %35 ]
  %39 = load i32, ptr @hf_dcom_iid, align 4
  %40 = call i32 @dissect_dcom_append_UUID(ptr noundef %0, i32 noundef %.295, ptr noundef %2, ptr noundef %3, ptr noundef %4, ptr noundef %5, i32 noundef %39, i32 noundef %.08894, ptr noundef nonnull %14) #3
  %41 = add i32 %.08894, 1
  %42 = load i32, ptr %9, align 4
  %43 = add i32 %42, -1
  store i32 %43, ptr %9, align 4
  %.not91 = icmp eq i32 %42, 0
  br i1 %.not91, label %.loopexit, label %.lr.ph, !llvm.loop !4

.loopexit:                                        ; preds = %.lr.ph, %35, %24
  %.1 = phi i32 [ %33, %24 ], [ %36, %35 ], [ %40, %.lr.ph ]
  %44 = load i32, ptr @hf_remact_requested_protseqs, align 4
  %45 = call i32 @dissect_ndr_uint16(ptr noundef %0, i32 noundef %.1, ptr noundef %2, ptr noundef %3, ptr noundef %4, ptr noundef %5, i32 noundef %44, ptr noundef nonnull %12) #3
  %46 = call i32 @dissect_dcom_dcerpc_array_size(ptr noundef %0, i32 noundef %45, ptr noundef %2, ptr noundef %3, ptr noundef %4, ptr noundef %5, ptr noundef nonnull %11) #3
  %47 = load i32, ptr %11, align 4
  %48 = add i32 %47, -1
  store i32 %48, ptr %11, align 4
  %.not9296 = icmp eq i32 %47, 0
  br i1 %.not9296, label %._crit_edge, label %.lr.ph98

.lr.ph98:                                         ; preds = %.loopexit, %.lr.ph98
  %.397 = phi i32 [ %50, %.lr.ph98 ], [ %46, %.loopexit ]
  %49 = load i32, ptr @hf_remact_protseqs, align 4
  %50 = call i32 @dissect_ndr_uint16(ptr noundef %0, i32 noundef %.397, ptr noundef %2, ptr noundef %3, ptr noundef %4, ptr noundef %5, i32 noundef %49, ptr noundef nonnull %12) #3
  %51 = load i32, ptr %11, align 4
  %52 = add i32 %51, -1
  store i32 %52, ptr %11, align 4
  %.not92 = icmp eq i32 %51, 0
  br i1 %.not92, label %._crit_edge, label %.lr.ph98, !llvm.loop !6

._crit_edge:                                      ; preds = %.lr.ph98, %.loopexit
  %.3.lcssa = phi i32 [ %46, %.loopexit ], [ %50, %.lr.ph98 ]
  ret i32 %.3.lcssa
}